; ModuleID = '46/931.c'
source_filename = "46/931.c"
target datalayout = "e-m:e-p270:32:32-p271:32:32-p272:64:64-i64:64-f80:128-n8:16:32:64-S128"
target triple = "x86_64-pc-linux-gnu"

@.str = private unnamed_addr constant [5 x i8] c"%d%d\00", align 1
@.str.1 = private unnamed_addr constant [3 x i8] c"%d\00", align 1
@.str.2 = private unnamed_addr constant [4 x i8] c"%d\0A\00", align 1

; Function Attrs: noinline nounwind uwtable
define dso_local i32 @main() #0 {
  %1 = alloca i32, align 4
  %2 = alloca [100 x [100 x i32]], align 16
  %3 = alloca i32, align 4
  %4 = alloca i32, align 4
  %5 = alloca i32, align 4
  %6 = alloca i32, align 4
  %7 = alloca i32, align 4
  store i32 0, i32* %1, align 4
  %8 = call i32 (i8*, ...) @__isoc99_scanf(i8* getelementptr inbounds ([5 x i8], [5 x i8]* @.str, i64 0, i64 0), i32* %3, i32* %4)
  store i32 0, i32* %5, align 4
  br label %9

9:                                                ; preds = %30, %0
  %10 = load i32, i32* %5, align 4
  %11 = load i32, i32* %3, align 4
  %12 = icmp slt i32 %10, %11
  br i1 %12, label %13, label %33

13:                                               ; preds = %9
  store i32 0, i32* %6, align 4
  br label %14

14:                                               ; preds = %26, %13
  %15 = load i32, i32* %6, align 4
  %16 = load i32, i32* %4, align 4
  %17 = icmp slt i32 %15, %16
  br i1 %17, label %18, label %29

18:                                               ; preds = %14
  %19 = load i32, i32* %5, align 4
  %20 = sext i32 %19 to i64
  %21 = getelementptr inbounds [100 x [100 x i32]], [100 x [100 x i32]]* %2, i64 0, i64 %20
  %22 = load i32, i32* %6, align 4
  %23 = sext i32 %22 to i64
  %24 = getelementptr inbounds [100 x i32], [100 x i32]* %21, i64 0, i64 %23
  %25 = call i32 (i8*, ...) @__isoc99_scanf(i8* getelementptr inbounds ([3 x i8], [3 x i8]* @.str.1, i64 0, i64 0), i32* %24)
  br label %26

26:                                               ; preds = %18
  %27 = load i32, i32* %6, align 4
  %28 = add nsw i32 %27, 1
  store i32 %28, i32* %6, align 4
  br label %14

29:                                               ; preds = %14
  br label %30

30:                                               ; preds = %29
  %31 = load i32, i32* %5, align 4
  %32 = add nsw i32 %31, 1
  store i32 %32, i32* %5, align 4
  br label %9

33:                                               ; preds = %9
  store i32 0, i32* %5, align 4
  store i32 -1, i32* %6, align 4
  store i32 0, i32* %7, align 4
  br label %34

34:                                               ; preds = %152, %33
  %35 = load i32, i32* %6, align 4
  %36 = add nsw i32 %35, 1
  store i32 %36, i32* %6, align 4
  br label %37

37:                                               ; preds = %52, %34
  %38 = load i32, i32* %6, align 4
  %39 = load i32, i32* %4, align 4
  %40 = load i32, i32* %7, align 4
  %41 = sub nsw i32 %39, %40
  %42 = icmp slt i32 %38, %41
  br i1 %42, label %43, label %55

43:                                               ; preds = %37
  %44 = load i32, i32* %5, align 4
  %45 = sext i32 %44 to i64
  %46 = getelementptr inbounds [100 x [100 x i32]], [100 x [100 x i32]]* %2, i64 0, i64 %45
  %47 = load i32, i32* %6, align 4
  %48 = sext i32 %47 to i64
  %49 = getelementptr inbounds [100 x i32], [100 x i32]* %46, i64 0, i64 %48
  %50 = load i32, i32* %49, align 4
  %51 = call i32 (i8*, ...) @printf(i8* getelementptr inbounds ([4 x i8], [4 x i8]* @.str.2, i64 0, i64 0), i32 %50)
  br label %52

52:                                               ; preds = %43
  %53 = load i32, i32* %6, align 4
  %54 = add nsw i32 %53, 1
  store i32 %54, i32* %6, align 4
  br label %37

55:                                               ; preds = %37
  %56 = load i32, i32* %6, align 4
  %57 = add nsw i32 %56, -1
  store i32 %57, i32* %6, align 4
  %58 = load i32, i32* %5, align 4
  %59 = load i32, i32* %3, align 4
  %60 = load i32, i32* %7, align 4
  %61 = sub nsw i32 %59, %60
  %62 = sub nsw i32 %61, 1
  %63 = icmp sge i32 %58, %62
  br i1 %63, label %64, label %65

64:                                               ; preds = %55
  br label %155

65:                                               ; preds = %55
  %66 = load i32, i32* %5, align 4
  %67 = add nsw i32 %66, 1
  store i32 %67, i32* %5, align 4
  br label %68

68:                                               ; preds = %83, %65
  %69 = load i32, i32* %5, align 4
  %70 = load i32, i32* %3, align 4
  %71 = load i32, i32* %7, align 4
  %72 = sub nsw i32 %70, %71
  %73 = icmp slt i32 %69, %72
  br i1 %73, label %74, label %86

74:                                               ; preds = %68
  %75 = load i32, i32* %5, align 4
  %76 = sext i32 %75 to i64
  %77 = getelementptr inbounds [100 x [100 x i32]], [100 x [100 x i32]]* %2, i64 0, i64 %76
  %78 = load i32, i32* %6, align 4
  %79 = sext i32 %78 to i64
  %80 = getelementptr inbounds [100 x i32], [100 x i32]* %77, i64 0, i64 %79
  %81 = load i32, i32* %80, align 4
  %82 = call i32 (i8*, ...) @printf(i8* getelementptr inbounds ([4 x i8], [4 x i8]* @.str.2, i64 0, i64 0), i32 %81)
  br label %83

83:                                               ; preds = %74
  %84 = load i32, i32* %5, align 4
  %85 = add nsw i32 %84, 1
  store i32 %85, i32* %5, align 4
  br label %68

86:                                               ; preds = %68
  %87 = load i32, i32* %5, align 4
  %88 = add nsw i32 %87, -1
  store i32 %88, i32* %5, align 4
  %89 = load i32, i32* %6, align 4
  %90 = load i32, i32* %7, align 4
  %91 = add nsw i32 %90, 1
  %92 = icmp slt i32 %89, %91
  br i1 %92, label %93, label %94

93:                                               ; preds = %86
  br label %155

94:                                               ; preds = %86
  %95 = load i32, i32* %6, align 4
  %96 = add nsw i32 %95, -1
  store i32 %96, i32* %6, align 4
  br label %97

97:                                               ; preds = %110, %94
  %98 = load i32, i32* %6, align 4
  %99 = load i32, i32* %7, align 4
  %100 = icmp sge i32 %98, %99
  br i1 %100, label %101, label %113

101:                                              ; preds = %97
  %102 = load i32, i32* %5, align 4
  %103 = sext i32 %102 to i64
  %104 = getelementptr inbounds [100 x [100 x i32]], [100 x [100 x i32]]* %2, i64 0, i64 %103
  %105 = load i32, i32* %6, align 4
  %106 = sext i32 %105 to i64
  %107 = getelementptr inbounds [100 x i32], [100 x i32]* %104, i64 0, i64 %106
  %108 = load i32, i32* %107, align 4
  %109 = call i32 (i8*, ...) @printf(i8* getelementptr inbounds ([4 x i8], [4 x i8]* @.str.2, i64 0, i64 0), i32 %108)
  br label %110

110:                                              ; preds = %101
  %111 = load i32, i32* %6, align 4
  %112 = add nsw i32 %111, -1
  store i32 %112, i32* %6, align 4
  br label %97

113:                                              ; preds = %97
  %114 = load i32, i32* %6, align 4
  %115 = add nsw i32 %114, 1
  store i32 %115, i32* %6, align 4
  %116 = load i32, i32* %5, align 4
  %117 = load i32, i32* %7, align 4
  %118 = add nsw i32 %117, 2
  %119 = icmp slt i32 %116, %118
  br i1 %119, label %120, label %121

120:                                              ; preds = %113
  br label %155

121:                                              ; preds = %113
  %122 = load i32, i32* %5, align 4
  %123 = add nsw i32 %122, -1
  store i32 %123, i32* %5, align 4
  br label %124

124:                                              ; preds = %138, %121
  %125 = load i32, i32* %5, align 4
  %126 = load i32, i32* %7, align 4
  %127 = add nsw i32 %126, 1
  %128 = icmp sge i32 %125, %127
  br i1 %128, label %129, label %141

129:                                              ; preds = %124
  %130 = load i32, i32* %5, align 4
  %131 = sext i32 %130 to i64
  %132 = getelementptr inbounds [100 x [100 x i32]], [100 x [100 x i32]]* %2, i64 0, i64 %131
  %133 = load i32, i32* %6, align 4
  %134 = sext i32 %133 to i64
  %135 = getelementptr inbounds [100 x i32], [100 x i32]* %132, i64 0, i64 %134
  %136 = load i32, i32* %135, align 4
  %137 = call i32 (i8*, ...) @printf(i8* getelementptr inbounds ([4 x i8], [4 x i8]* @.str.2, i64 0, i64 0), i32 %136)
  br label %138

138:                                              ; preds = %129
  %139 = load i32, i32* %5, align 4
  %140 = add nsw i32 %139, -1
  store i32 %140, i32* %5, align 4
  br label %124

141:                                              ; preds = %124
  %142 = load i32, i32* %5, align 4
  %143 = add nsw i32 %142, 1
  store i32 %143, i32* %5, align 4
  %144 = load i32, i32* %6, align 4
  %145 = load i32, i32* %4, align 4
  %146 = load i32, i32* %7, align 4
  %147 = sub nsw i32 %145, %146
  %148 = sub nsw i32 %147, 1
  %149 = icmp sge i32 %144, %148
  br i1 %149, label %150, label %151

150:                                              ; preds = %141
  br label %155

151:                                              ; preds = %141
  br label %152

152:                                              ; preds = %151
  %153 = load i32, i32* %7, align 4
  %154 = add nsw i32 %153, 1
  store i32 %154, i32* %7, align 4
  br label %34

155:                                              ; preds = %150, %120, %93, %64
  ret i32 0
}

declare dso_local i32 @__isoc99_scanf(i8*, ...) #1

declare dso_local i32 @printf(i8*, ...) #1


!llvm.module.flags = !{!0}
!llvm.ident = !{!1}

!0 = !{i32 1, !"wchar_size", i32 4}
!1 = !{!"clang version 10.0.0-4ubuntu1 "}
